(dp0
S''
p1
(lp2
I197
aI806
aI794
aI202
aI191
aI815
aI818
aI202
asS'left4'
p3
(lp4
F512.0
aF663.2
aF814.4
aF360.8
aF210.0
aF815.0
aF815.0
aF210.0
asS'left6'
p5
(lp6
F512.0
aF663.2
aF814.4
aF512.0
aF210.0
aF815.0
aF815.0
aF210.0
asS'left7'
p7
(lp8
F512.0
aF814.4
aF814.4
aF512.0
aF210.0
aF663.8
aF815.0
aF210.0
asS'left1'
p9
(lp10
F512.0
aF663.2
aF663.2
aF360.8
aF361.2
aF815.0
aF815.0
aF210.0
asS'left2'
p11
(lp12
F512.0
aF663.2
aF663.2
aF360.8
aF210.0
aF815.0
aF815.0
aF210.0
asS'left3'
p13
(lp14
F512.0
aF663.2
aF814.4
aF360.8
aF210.0
aF815.0
aF663.8
aF210.0
asS'jump1'
p15
(lp16
I189
aI841
aI301
aI730
aI169
aI861
aI861
aI163
asS'lean'
p17
(lp18
I200
aI819
aI268
aI750
aI169
aI855
aI830
aI203
asS'left8'
p19
(lp20
F512.0
aF814.4
aF814.4
aF512.0
aF210.0
aF815.0
aF815.0
aF210.0
asS'left9'
p21
(lp22
F209.60000000000002
aF512.0
aF512.0
aF209.60000000000002
aF210.0
aF815.0
aF815.0
aF210.0
asS'halfup'
p23
(lp24
I189
aI839
aI499
aI528
aI166
aI859
aI623
aI397
asS'forward1'
p25
(lp26
F209.60000000000002
aF512.0
aF814.4
aF512.0
aF277.2
aF815.0
aF815.0
aF277.2
asS'\x1b[A'
p27
(lp28
I506
aI494
aI508
aI514
aI203
aI820
aI818
aI200
asS'right4'
p29
(lp30
F209.60000000000002
aF663.2
aF512.0
aF360.8
aF210.0
aF815.0
aF815.0
aF210.0
asS'backward1'
p31
(lp32
F209.60000000000002
aF512.0
aF814.4
aF512.0
aF210.0
aF747.8
aF747.8
aF210.0
asS'backward2'
p33
(lp34
F512.0
aF814.4
aF512.0
aF209.60000000000002
aF277.2
aF815.0
aF815.0
aF277.2
asS'right7'
p35
(lp36
F209.60000000000002
aF512.0
aF512.0
aF209.60000000000002
aF210.0
aF747.8
aF815.0
aF210.0
asS'right1'
p37
(lp38
F209.60000000000002
aF663.2
aF663.2
aF360.8
aF277.2
aF815.0
aF815.0
aF210.0
asS'right2'
p39
(lp40
F209.60000000000002
aF663.2
aF663.2
aF360.8
aF210.0
aF815.0
aF815.0
aF210.0
asS'right3'
p41
(lp42
F209.60000000000002
aF663.2
aF512.0
aF360.8
aF210.0
aF815.0
aF747.8
aF210.0
asS'right8'
p43
(lp44
F209.60000000000002
aF512.0
aF512.0
aF209.60000000000002
aF210.0
aF815.0
aF815.0
aF210.0
asS'lift3'
p45
(lp46
F360.8
aF663.2
aF663.2
aF360.8
aF277.2
aF815.0
aF815.0
aF277.2
asS'strafeleft1'
p47
(lp48
F209.60000000000002
aF814.4
aF512.0
aF512.0
aF210.0
aF747.8
aF747.8
aF210.0
asS'strafeleft2'
p49
(lp50
F512.0
aF512.0
aF814.4
aF209.60000000000002
aF277.2
aF815.0
aF815.0
aF277.2
asS'crouch'
p51
(lp52
I202
aI818
aI306
aI711
aI362
aI663
aI625
aI393
asS'forward2'
p53
(lp54
F512.0
aF814.4
aF512.0
aF209.60000000000002
aF210.0
aF747.8
aF747.8
aF210.0
asS'straferight2'
p55
(lp56
F512.0
aF512.0
aF814.4
aF209.60000000000002
aF210.0
aF747.8
aF747.8
aF210.0
asS'straferight1'
p57
(lp58
F209.60000000000002
aF814.4
aF512.0
aF512.0
aF277.2
aF815.0
aF815.0
aF277.2
asS'right6'
p59
(lp60
F209.60000000000002
aF663.2
aF512.0
aF209.60000000000002
aF210.0
aF815.0
aF815.0
aF210.0
asS'left5'
p61
(lp62
F512.0
aF663.2
aF814.4
aF512.0
aF210.0
aF815.0
aF815.0
aF361.2
asS'swing1'
p63
(lp64
F360.8
aF512.0
aF512.0
aF360.8
aF210.0
aF815.0
aF815.0
aF210.0
asS'swing2'
p65
(lp66
I182
aI823
aI821
aI203
aI250
aI830
aI820
aI242
asS'swing3'
p67
(lp68
F512.0
aF663.2
aF663.2
aF512.0
aF210.0
aF815.0
aF815.0
aF210.0
asS'default'
p69
(lp70
F360.8
aF663.2
aF663.2
aF360.8
aF210.0
aF815.0
aF815.0
aF210.0
asS'right5'
p71
(lp72
F209.60000000000002
aF663.2
aF512.0
aF209.60000000000002
aF210.0
aF815.0
aF815.0
aF277.2
asS'wiggle2'
p73
(lp74
I195
aI817
aI266
aI751
aI610
aI721
aI805
aI212
asS'lift1'
p75
(lp76
F360.8
aF663.2
aF663.2
aF360.8
aF210.0
aF747.8
aF747.8
aF210.0
asS'lift2'
p77
(lp78
F209.60000000000002
aF814.4
aF814.4
aF209.60000000000002
aF277.2
aF815.0
aF815.0
aF277.2
asS'wiggle1'
p79
(lp80
I200
aI818
aI266
aI750
aI269
aI421
aI807
aI211
asS'lift4'
p81
(lp82
F209.60000000000002
aF814.4
aF814.4
aF209.60000000000002
aF210.0
aF747.8
aF747.8
aF210.0
as.