(dp0
S''
p1
(lp2
I511
aI511
aI510
aI511
aI210
aI814
aI815
aI209
asS'left4'
p3
(lp4
F512.0
aF663.2
aF814.4
aF360.8
aF210.0
aF815.0
aF815.0
aF210.0
asS'left6'
p5
(lp6
F512.0
aF663.2
aF814.4
aF512.0
aF210.0
aF815.0
aF815.0
aF210.0
asS'left7'
p7
(lp8
F512.0
aF814.4
aF814.4
aF512.0
aF210.0
aF663.8
aF815.0
aF210.0
asS'left1'
p9
(lp10
F512.0
aF663.2
aF663.2
aF360.8
aF361.2
aF815.0
aF815.0
aF210.0
asS'left2'
p11
(lp12
F512.0
aF663.2
aF663.2
aF360.8
aF210.0
aF815.0
aF815.0
aF210.0
asS'left3'
p13
(lp14
F512.0
aF663.2
aF814.4
aF360.8
aF210.0
aF815.0
aF663.8
aF210.0
asS'jump1'
p15
(lp16
I189
aI841
aI301
aI730
aI169
aI861
aI861
aI163
asS'right8'
p17
(lp18
F209.60000000000002
aF512.0
aF512.0
aF209.60000000000002
aF210.0
aF815.0
aF815.0
aF210.0
asS'left8'
p19
(lp20
F512.0
aF814.4
aF814.4
aF512.0
aF210.0
aF815.0
aF815.0
aF210.0
asS'left9'
p21
(lp22
F209.60000000000002
aF512.0
aF512.0
aF209.60000000000002
aF210.0
aF815.0
aF815.0
aF210.0
asS'halfup'
p23
(lp24
I189
aI839
aI499
aI528
aI166
aI859
aI623
aI397
asS'crouch'
p25
(lp26
I202
aI818
aI306
aI711
aI362
aI663
aI625
aI393
asS'\x1b[A'
p27
(lp28
I506
aI494
aI508
aI514
aI203
aI820
aI818
aI200
asS'right4'
p29
(lp30
F209.60000000000002
aF663.2
aF512.0
aF360.8
aF210.0
aF815.0
aF815.0
aF210.0
asS'backward1'
p31
(lp32
F209.60000000000002
aF512.0
aF814.4
aF512.0
aF210.0
aF747.8
aF747.8
aF210.0
asS'backward2'
p33
(lp34
F512.0
aF814.4
aF512.0
aF209.60000000000002
aF277.2
aF815.0
aF815.0
aF277.2
asS'right7'
p35
(lp36
F209.60000000000002
aF512.0
aF512.0
aF209.60000000000002
aF210.0
aF747.8
aF815.0
aF210.0
asS'right1'
p37
(lp38
F209.60000000000002
aF663.2
aF663.2
aF360.8
aF277.2
aF815.0
aF815.0
aF210.0
asS'right2'
p39
(lp40
F209.60000000000002
aF663.2
aF663.2
aF360.8
aF210.0
aF815.0
aF815.0
aF210.0
asS'right3'
p41
(lp42
F209.60000000000002
aF663.2
aF512.0
aF360.8
aF210.0
aF815.0
aF747.8
aF210.0
asS'lean'
p43
(lp44
I200
aI819
aI268
aI750
aI169
aI855
aI830
aI203
asS'wiggle1'
p45
(lp46
I200
aI818
aI266
aI750
aI269
aI421
aI807
aI211
asS'strafeleft1'
p47
(lp48
F209.60000000000002
aF814.4
aF512.0
aF512.0
aF210.0
aF747.8
aF747.8
aF210.0
asS'map'
p49
(imap
EECSMap
p50
(dp51
S'costmap_size_y'
p52
I8
sS'horizontalWalls'
p53
(lp54
(lp55
I0
aI0
aI0
aI0
aI0
aI0
aI1
aI1
aa(lp56
I0
aI0
aI0
aI0
aI0
aI0
aI1
aI0
aa(lp57
I0
aI0
aI0
aI0
aI0
aI0
aI0
aI0
aa(lp58
I0
aI0
aI0
aI0
aI0
aI0
aI1
aI1
aa(lp59
I0
aI0
aI0
aI0
aI0
aI0
aI0
aI0
aa(lp60
I0
aI0
aI0
aI0
aI0
aI0
aI0
aI0
aa(lp61
I0
aI0
aI0
aI0
aI0
aI0
aI0
aI0
aa(lp62
I0
aI0
aI0
aI0
aI0
aI0
aI0
aI0
aa(lp63
I0
aI0
aI0
aI0
aI0
aI0
aI0
aI0
aasS'verticalWalls'
p64
(lp65
(lp66
I0
aI0
aI0
aI0
aI0
aI0
aI1
aI0
aI1
aa(lp67
I0
aI0
aI0
aI0
aI0
aI0
aI0
aI1
aI1
aa(lp68
I0
aI0
aI0
aI0
aI0
aI0
aI1
aI0
aI1
aa(lp69
I0
aI0
aI0
aI0
aI0
aI0
aI0
aI0
aI0
aa(lp70
I0
aI0
aI0
aI0
aI0
aI0
aI0
aI0
aI0
aa(lp71
I0
aI0
aI0
aI0
aI0
aI0
aI0
aI0
aI0
aa(lp72
I0
aI0
aI0
aI0
aI0
aI0
aI0
aI0
aI0
aa(lp73
I0
aI0
aI0
aI0
aI0
aI0
aI0
aI0
aI0
aasS'costmap_size_x'
p74
I8
sS'obstacle_size_y'
p75
I8
sS'obstacle_size_x'
p76
I8
sS'costMap'
p77
(lp78
(lp79
I6
aI5
aI4
aI3
aI2
aI1
aI0
aI1
aa(lp80
I7
aI6
aI5
aI4
aI3
aI2
aI3
aI2
aa(lp81
I8
aI7
aI6
aI5
aI4
aI3
aI4
aI3
aa(lp82
I9
aI8
aI7
aI6
aI5
aI4
aI5
aI6
aa(lp83
I10
aI9
aI8
aI7
aI6
aI5
aI6
aI7
aa(lp84
I11
aI10
aI9
aI8
aI7
aI6
aI7
aI8
aa(lp85
I12
aI11
aI10
aI9
aI8
aI7
aI8
aI9
aa(lp86
I13
aI12
aI11
aI10
aI9
aI8
aI9
aI10
aasbsS'strafeleft2'
p87
(lp88
F512.0
aF512.0
aF814.4
aF209.60000000000002
aF277.2
aF815.0
aF815.0
aF277.2
asS'forward1'
p89
(lp90
F209.60000000000002
aF512.0
aF814.4
aF512.0
aF277.2
aF815.0
aF815.0
aF277.2
asS'forward2'
p91
(lp92
F512.0
aF814.4
aF512.0
aF209.60000000000002
aF210.0
aF747.8
aF747.8
aF210.0
asS'straferight2'
p93
(lp94
F512.0
aF512.0
aF814.4
aF209.60000000000002
aF210.0
aF747.8
aF747.8
aF210.0
asS'straferight1'
p95
(lp96
F209.60000000000002
aF814.4
aF512.0
aF512.0
aF277.2
aF815.0
aF815.0
aF277.2
asS'right6'
p97
(lp98
F209.60000000000002
aF663.2
aF512.0
aF209.60000000000002
aF210.0
aF815.0
aF815.0
aF210.0
asS'left5'
p99
(lp100
F512.0
aF663.2
aF814.4
aF512.0
aF210.0
aF815.0
aF815.0
aF361.2
asS'swing1'
p101
(lp102
F360.8
aF512.0
aF512.0
aF360.8
aF210.0
aF815.0
aF815.0
aF210.0
asS'swing2'
p103
(lp104
I182
aI823
aI821
aI203
aI250
aI830
aI820
aI242
asS'swing3'
p105
(lp106
F512.0
aF663.2
aF663.2
aF512.0
aF210.0
aF815.0
aF815.0
aF210.0
asS'default'
p107
(lp108
F360.8
aF663.2
aF663.2
aF360.8
aF210.0
aF815.0
aF815.0
aF210.0
asS'right5'
p109
(lp110
F209.60000000000002
aF663.2
aF512.0
aF209.60000000000002
aF210.0
aF815.0
aF815.0
aF277.2
asS'wiggle2'
p111
(lp112
I195
aI817
aI266
aI751
aI610
aI721
aI805
aI212
asS'lift1'
p113
(lp114
F360.8
aF663.2
aF663.2
aF360.8
aF210.0
aF747.8
aF747.8
aF210.0
asS'lift2'
p115
(lp116
F209.60000000000002
aF814.4
aF814.4
aF209.60000000000002
aF277.2
aF815.0
aF815.0
aF277.2
asS'lift3'
p117
(lp118
F360.8
aF663.2
aF663.2
aF360.8
aF277.2
aF815.0
aF815.0
aF277.2
asS'lift4'
p119
(lp120
F209.60000000000002
aF814.4
aF814.4
aF209.60000000000002
aF210.0
aF747.8
aF747.8
aF210.0
asS'visited'
p121
c__builtin__
set
p122
((lp123
(I2
I7
tp124
a(I2
I6
tp125
a(I0
I7
tp126
a(I0
I6
tp127
a(I1
I6
tp128
a(I1
I7
tp129
atp130
Rp131
s.