(dp0
S''
p1
(lp2
I499
aI520
aI816
aI204
aI159
aI843
aI845
aI164
asS'jump1'
p3
(lp4
I189
aI841
aI301
aI730
aI169
aI861
aI861
aI163
asS'halfup'
p5
(lp6
I189
aI839
aI499
aI528
aI166
aI859
aI623
aI397
asS'crouch'
p7
(lp8
I202
aI818
aI306
aI711
aI362
aI663
aI625
aI393
asS'backward1'
p9
(lp10
F209.60000000000002
aF512.0
aF814.4
aF512.0
aF210.0
aF747.8
aF747.8
aF210.0
asS'backward2'
p11
(lp12
F512.0
aF814.4
aF512.0
aF209.60000000000002
aF277.2
aF815.0
aF815.0
aF277.2
asS'lean'
p13
(lp14
I200
aI819
aI268
aI750
aI169
aI855
aI830
aI203
asS'wiggle1'
p15
(lp16
I200
aI818
aI266
aI750
aI269
aI421
aI807
aI211
asS'strafeleft1'
p17
(lp18
F209.60000000000002
aF814.4
aF512.0
aF512.0
aF210.0
aF747.8
aF747.8
aF210.0
asS'strafeleft2'
p19
(lp20
F512.0
aF512.0
aF814.4
aF209.60000000000002
aF277.2
aF815.0
aF815.0
aF277.2
asS'forward1'
p21
(lp22
F209.60000000000002
aF512.0
aF814.4
aF512.0
aF277.2
aF815.0
aF815.0
aF277.2
asS'forward2'
p23
(lp24
F512.0
aF814.4
aF512.0
aF209.60000000000002
aF210.0
aF747.8
aF747.8
aF210.0
asS'straferight2'
p25
(lp26
F512.0
aF512.0
aF814.4
aF209.60000000000002
aF210.0
aF747.8
aF747.8
aF210.0
asS'straferight1'
p27
(lp28
F209.60000000000002
aF814.4
aF512.0
aF512.0
aF277.2
aF815.0
aF815.0
aF277.2
asS'swing1'
p29
(lp30
I355
aI503
aI508
aI355
aI208
aI832
aI835
aI211
asS'swing2'
p31
(lp32
I182
aI823
aI821
aI203
aI250
aI830
aI820
aI242
asS'swing3'
p33
(lp34
I513
aI657
aI659
aI513
aI199
aI812
aI811
aI202
asS'default'
p35
(lp36
I358
aI662
aI662
aI359
aI210
aI814
aI814
aI210
asS'wiggle2'
p37
(lp38
I195
aI817
aI266
aI751
aI610
aI721
aI805
aI212
asS'lift1'
p39
(lp40
I358
aI661
aI661
aI356
aI208
aI784
aI781
aI211
asS'lift2'
p41
(lp42
I202
aI814
aI817
aI224
aI248
aI846
aI807
aI246
asS'lift3'
p43
(lp44
I356
aI662
aI661
aI359
aI244
aI812
aI811
aI247
asS'lift4'
p45
(lp46
I214
aI831
aI816
aI202
aI202
aI770
aI771
aI209
as.