(dp0
S''
p1
(lp2
I358
aI662
aI662
aI359
aI210
aI814
aI814
aI210
asS'default'
p3
(lp4
I358
aI662
aI662
aI359
aI210
aI814
aI814
aI210
asS'crouch'
p5
(lp6
I204
aI805
aI309
aI711
aI406
aI617
aI637
aI393
as.