(dp0
S''
p1
(lp2
I513
aI655
aI658
aI513
aI197
aI772
aI776
aI202
asS'swing1'
p3
(lp4
I355
aI503
aI508
aI355
aI208
aI832
aI835
aI211
asS'swing2'
p5
(lp6
I182
aI823
aI821
aI203
aI250
aI830
aI820
aI242
asS'swing3'
p7
(lp8
I513
aI657
aI659
aI513
aI199
aI812
aI811
aI202
asS'crouch'
p9
(lp10
I202
aI818
aI306
aI711
aI362
aI663
aI625
aI393
asS'default'
p11
(lp12
I358
aI662
aI662
aI359
aI210
aI814
aI814
aI210
asS'jump1'
p13
(lp14
I189
aI841
aI301
aI730
aI169
aI861
aI861
aI163
asS'lean'
p15
(lp16
I200
aI819
aI268
aI750
aI169
aI855
aI830
aI203
asS'lift2'
p17
(lp18
I202
aI814
aI817
aI224
aI248
aI846
aI807
aI246
asS'wiggle2'
p19
(lp20
I195
aI817
aI266
aI751
aI610
aI721
aI805
aI212
asS'lift1'
p21
(lp22
I358
aI661
aI661
aI356
aI208
aI784
aI781
aI211
asS'halfup'
p23
(lp24
I189
aI839
aI499
aI528
aI166
aI859
aI623
aI397
asS'wiggle1'
p25
(lp26
I200
aI818
aI266
aI750
aI269
aI421
aI807
aI211
asS'lift4'
p27
(lp28
I214
aI831
aI816
aI202
aI202
aI770
aI771
aI209
asS'lift3'
p29
(lp30
I356
aI662
aI661
aI359
aI244
aI812
aI811
aI247
as.